; Function Attrs: nofree norecurse nosync nounwind memory(argmem: read) uwtable
define range(i64 0, 72057594037927936) i64 @ZSTD_crossEntropyCost(ptr noundef readonly captures(none) %0, i32 noundef %1, ptr noundef readonly captures(none) %2, i32 noundef %3) local_unnamed_addr #0 {
  %5 = sub i32 8, %1
  %6 = add i32 %3, 1
  %umax = tail call i32 @llvm.umax.i32(i32 %6, i32 1)
  %wide.trip.count = zext i32 %umax to i64
  br label %7

7:                                                ; preds = %4, %7
  %indvars.iv = phi i64 [ 0, %4 ], [ %indvars.iv.next, %7 ]
  %.018 = phi i64 [ 0, %4 ], [ %18, %7 ]
  %8 = getelementptr inbounds nuw i16, ptr %0, i64 %indvars.iv
  %9 = load i16, ptr %8, align 2, !tbaa !3
  %.not16 = icmp eq i16 %9, -1
  %narrow = select i1 %.not16, i16 1, i16 %9
  %spec.select = sext i16 %narrow to i32
  %10 = shl i32 %spec.select, %5
  %11 = getelementptr inbounds nuw i32, ptr %2, i64 %indvars.iv
  %12 = load i32, ptr %11, align 4, !tbaa !10
  %13 = zext i32 %10 to i64
  %14 = getelementptr inbounds nuw [256 x i32], ptr @kInverseProbabilityLog256, i64 0, i64 %13
  %15 = load i32, ptr %14, align 4, !tbaa !10
  %16 = mul i32 %15, %12
  %17 = zext i32 %16 to i64
  %18 = add i64 %.018, %17
  %indvars.iv.next = add nuw nsw i64 %indvars.iv, 1
  %exitcond = icmp eq i64 %indvars.iv.next, %wide.trip.count
  br i1 %exitcond, label %19, label %7, !llvm.loop !13

19:                                               ; preds = %7
  %20 = lshr i64 %18, 8
  ret i64 %20
}